; Function Attrs: nounwind uwtable
define noalias nonnull ptr @l_List_filterAuxM___at___private_Lean_Elab_SyntheticMVars_0__Lean_Elab_Term_synthesizeSyntheticMVarsStep___spec__1___lambda__1(i8 noundef zeroext %0, ptr noundef readnone captures(none) %1, ptr noundef readnone captures(none) %2, ptr noundef readnone captures(none) %3, ptr noundef readnone captures(none) %4, ptr noundef readnone captures(none) %5, ptr noundef readnone captures(none) %6, ptr noundef readnone captures(none) %7, ptr noundef %8) local_unnamed_addr #0 {
  %10 = icmp eq i8 %0, 0
  tail call void @lean_inc_heartbeat() #7
  %11 = tail call noalias ptr @mi_malloc_small(i64 noundef 24) #7
  %12 = icmp eq ptr %11, null
  br i1 %10, label %13, label %15

13:                                               ; preds = %9
  br i1 %12, label %14, label %lean_alloc_ctor.exit

14:                                               ; preds = %13
  tail call void @lean_internal_panic_out_of_memory() #8
  unreachable

15:                                               ; preds = %9
  br i1 %12, label %16, label %lean_alloc_ctor.exit

16:                                               ; preds = %15
  tail call void @lean_internal_panic_out_of_memory() #8
  unreachable

lean_alloc_ctor.exit:                             ; preds = %15, %13
  %.sink = phi ptr [ inttoptr (i64 3 to ptr), %13 ], [ inttoptr (i64 1 to ptr), %15 ]
  %17 = getelementptr inbounds nuw i8, ptr %11, i64 4
  store i32 1, ptr %11, align 4, !tbaa !7
  store i32 131096, ptr %17, align 4
  %18 = getelementptr inbounds nuw i8, ptr %11, i64 8
  store ptr %.sink, ptr %18, align 8, !tbaa !10
  %19 = getelementptr inbounds nuw i8, ptr %11, i64 16
  store ptr %8, ptr %19, align 8, !tbaa !10
  ret ptr %11
}